; Function Attrs: nounwind uwtable
define ptr @l_Lake_buildFileAfterDep___rarg(ptr noundef %0, ptr noundef %1, ptr noundef %2, ptr noundef %3, i8 noundef zeroext %4, ptr noundef %5, ptr noundef %6, ptr noundef %7, ptr noundef %8, ptr noundef %9, ptr noundef %10) local_unnamed_addr #0 {
  tail call void @lean_inc_heartbeat() #5
  %12 = tail call noalias ptr @mi_malloc_small(i64 noundef 56) #5
  %13 = icmp eq ptr %12, null
  br i1 %13, label %14, label %lean_alloc_closure.exit

14:                                               ; preds = %11
  tail call void @lean_internal_panic_out_of_memory() #6
  unreachable

lean_alloc_closure.exit:                          ; preds = %11
  %15 = zext i8 %4 to i64
  %16 = shl nuw nsw i64 %15, 1
  %17 = or disjoint i64 %16, 1
  %18 = inttoptr i64 %17 to ptr
  %19 = getelementptr inbounds nuw i8, ptr %12, i64 4
  store i32 1, ptr %12, align 4, !tbaa !4
  store i32 -184549320, ptr %19, align 4
  %20 = getelementptr inbounds nuw i8, ptr %12, i64 8
  store ptr @l_Lake_buildFileAfterDep___rarg___lambda__1___boxed, ptr %20, align 8, !tbaa !9
  %21 = getelementptr inbounds nuw i8, ptr %12, i64 16
  store i16 11, ptr %21, align 8, !tbaa !15
  %22 = getelementptr inbounds nuw i8, ptr %12, i64 18
  store i16 4, ptr %22, align 2, !tbaa !15
  %23 = getelementptr inbounds nuw i8, ptr %12, i64 24
  store ptr %3, ptr %23, align 8, !tbaa !9
  %24 = getelementptr inbounds nuw i8, ptr %12, i64 32
  store ptr %2, ptr %24, align 8, !tbaa !9
  %25 = getelementptr inbounds nuw i8, ptr %12, i64 40
  store ptr %0, ptr %25, align 8, !tbaa !9
  %26 = getelementptr inbounds nuw i8, ptr %12, i64 48
  store ptr %18, ptr %26, align 8, !tbaa !9
  %27 = load ptr, ptr @l_Task_Priority_default, align 8, !tbaa !9
  %28 = tail call ptr @l_Lake_Job_mapM___at_Lake_buildFileAfterDep___spec__1___rarg(ptr noundef %1, ptr noundef nonnull %12, ptr noundef %27, i8 noundef zeroext 0, ptr noundef %5, ptr noundef %6, ptr noundef %7, ptr noundef %8, ptr noundef %9, ptr noundef %10)
  ret ptr %28
}